target datalayout = "e-m:e-p270:32:32-p271:32:32-p272:64:64-i64:64-i128:128-f80:128-n8:16:32:64-S128"
target triple = "x86_64-pc-linux-gnu"

%struct.evp_pkey_st = type { i32, i32, ptr, ptr, ptr, %union.legacy_pkey_st, %union.legacy_pkey_st, %struct.CRYPTO_REF_COUNT, ptr, ptr, i32, i8, %struct.crypto_ex_data_st, ptr, ptr, i64, ptr, i64, %struct.anon }
%union.legacy_pkey_st = type { ptr }
%struct.CRYPTO_REF_COUNT = type { i32 }
%struct.crypto_ex_data_st = type { ptr, ptr }
%struct.anon = type { i32, i32, i32 }
%struct.ossl_param_st = type { ptr, i32, ptr, i64, i64 }

@.str = private unnamed_addr constant [30 x i8] c"../openssl/crypto/evp/p_lib.c\00", align 1
@__func__.EVP_PKEY_set_params = private unnamed_addr constant [20 x i8] c"EVP_PKEY_set_params\00", align 1

; Function Attrs: nounwind uwtable
define i32 @EVP_PKEY_set_params(ptr noundef %0, ptr noundef %1) #0 {
  %3 = alloca i32, align 4
  %4 = alloca ptr, align 8
  %5 = alloca ptr, align 8
  store ptr %0, ptr %4, align 8, !tbaa !3
  store ptr %1, ptr %5, align 8, !tbaa !82
  %6 = load ptr, ptr %4, align 8, !tbaa !3
  %7 = icmp ne ptr %6, null
  br i1 %7, label %8, label %27

8:                                                ; preds = %2
  %9 = load ptr, ptr %4, align 8, !tbaa !3
  %10 = getelementptr inbounds nuw %struct.evp_pkey_st, ptr %9, i32 0, i32 13
  %11 = load ptr, ptr %10, align 8, !tbaa !32
  %12 = icmp ne ptr %11, null
  br i1 %12, label %13, label %26

13:                                               ; preds = %8
  %14 = load ptr, ptr %4, align 8, !tbaa !3
  %15 = getelementptr inbounds nuw %struct.evp_pkey_st, ptr %14, i32 0, i32 15
  %16 = load i64, ptr %15, align 8, !tbaa !149
  %17 = add i64 %16, 1
  store i64 %17, ptr %15, align 8, !tbaa !149
  %18 = load ptr, ptr %4, align 8, !tbaa !3
  %19 = getelementptr inbounds nuw %struct.evp_pkey_st, ptr %18, i32 0, i32 13
  %20 = load ptr, ptr %19, align 8, !tbaa !32
  %21 = load ptr, ptr %4, align 8, !tbaa !3
  %22 = getelementptr inbounds nuw %struct.evp_pkey_st, ptr %21, i32 0, i32 14
  %23 = load ptr, ptr %22, align 8, !tbaa !33
  %24 = load ptr, ptr %5, align 8, !tbaa !82
  %25 = call i32 @evp_keymgmt_set_params(ptr noundef %20, ptr noundef %23, ptr noundef %24)
  store i32 %25, ptr %3, align 4
  br label %28

26:                                               ; preds = %8
  br label %27

27:                                               ; preds = %26, %2
  call void @ERR_new()
  call void @ERR_set_debug(ptr noundef @.str, i32 noundef 2438, ptr noundef @__func__.EVP_PKEY_set_params)
  call void (i32, i32, ptr, ...) @ERR_set_error(i32 noundef 6, i32 noundef 163, ptr noundef null)
  store i32 0, ptr %3, align 4
  br label %28

28:                                               ; preds = %27, %13
  %29 = load i32, ptr %3, align 4
  ret i32 %29
}

; Function Attrs: nounwind uwtable
define i32 @EVP_PKEY_set_bn_param(ptr noundef %0, ptr noundef %1, ptr noundef %2) #0 {
  %4 = alloca i32, align 4
  %5 = alloca ptr, align 8
  %6 = alloca ptr, align 8
  %7 = alloca ptr, align 8
  %8 = alloca [2 x %struct.ossl_param_st], align 16
  %9 = alloca [2048 x i8], align 16
  %10 = alloca i32, align 4
  %11 = alloca i32, align 4
  %12 = alloca %struct.ossl_param_st, align 8
  %13 = alloca %struct.ossl_param_st, align 8
  store ptr %0, ptr %5, align 8, !tbaa !3
  store ptr %1, ptr %6, align 8, !tbaa !39
  store ptr %2, ptr %7, align 8, !tbaa !150
  call void @llvm.lifetime.start.p0(i64 80, ptr %8) #8
  call void @llvm.lifetime.start.p0(i64 2048, ptr %9) #8
  call void @llvm.lifetime.start.p0(i64 4, ptr %10) #8
  store i32 0, ptr %10, align 4, !tbaa !8
  %14 = load ptr, ptr %6, align 8, !tbaa !39
  %15 = icmp eq ptr %14, null
  br i1 %15, label %32, label %16

16:                                               ; preds = %3
  %17 = load ptr, ptr %7, align 8, !tbaa !150
  %18 = icmp eq ptr %17, null
  br i1 %18, label %32, label %19

19:                                               ; preds = %16
  %20 = load ptr, ptr %5, align 8, !tbaa !3
  %21 = icmp eq ptr %20, null
  br i1 %21, label %32, label %22

22:                                               ; preds = %19
  %23 = load ptr, ptr %5, align 8, !tbaa !3
  %24 = getelementptr inbounds nuw %struct.evp_pkey_st, ptr %23, i32 0, i32 5
  %25 = load ptr, ptr %24, align 8, !tbaa !38
  %26 = icmp ne ptr %25, null
  br i1 %26, label %33, label %27

27:                                               ; preds = %22
  %28 = load ptr, ptr %5, align 8, !tbaa !3
  %29 = getelementptr inbounds nuw %struct.evp_pkey_st, ptr %28, i32 0, i32 14
  %30 = load ptr, ptr %29, align 8, !tbaa !33
  %31 = icmp ne ptr %30, null
  br i1 %31, label %33, label %32

32:                                               ; preds = %27, %19, %16, %3
  store i32 0, ptr %4, align 4
  store i32 1, ptr %11, align 4
  br label %66

33:                                               ; preds = %27, %22
  %34 = load ptr, ptr %7, align 8, !tbaa !150
  %35 = call i32 @BN_num_bits(ptr noundef %34)
  %36 = add nsw i32 %35, 7
  %37 = sdiv i32 %36, 8
  store i32 %37, ptr %10, align 4, !tbaa !8
  %38 = load i32, ptr %10, align 4, !tbaa !8
  %39 = icmp sle i32 %38, 2048
  %40 = zext i1 %39 to i32
  %41 = icmp ne i32 %40, 0
  %42 = xor i1 %41, true
  %43 = xor i1 %42, true
  %44 = zext i1 %43 to i32
  %45 = sext i32 %44 to i64
  %46 = call i64 @llvm.expect.i64(i64 %45, i64 1)
  %47 = icmp ne i64 %46, 0
  br i1 %47, label %49, label %48

48:                                               ; preds = %33
  store i32 0, ptr %4, align 4
  store i32 1, ptr %11, align 4
  br label %66

49:                                               ; preds = %33
  %50 = load ptr, ptr %7, align 8, !tbaa !150
  %51 = getelementptr inbounds [2048 x i8], ptr %9, i64 0, i64 0
  %52 = load i32, ptr %10, align 4, !tbaa !8
  %53 = call i32 @BN_bn2nativepad(ptr noundef %50, ptr noundef %51, i32 noundef %52)
  %54 = icmp slt i32 %53, 0
  br i1 %54, label %55, label %56

55:                                               ; preds = %49
  store i32 0, ptr %4, align 4
  store i32 1, ptr %11, align 4
  br label %66

56:                                               ; preds = %49
  %57 = getelementptr inbounds [2 x %struct.ossl_param_st], ptr %8, i64 0, i64 0
  call void @llvm.lifetime.start.p0(i64 40, ptr %12) #8
  %58 = load ptr, ptr %6, align 8, !tbaa !39
  %59 = getelementptr inbounds [2048 x i8], ptr %9, i64 0, i64 0
  %60 = load i32, ptr %10, align 4, !tbaa !8
  %61 = sext i32 %60 to i64
  call void @OSSL_PARAM_construct_BN(ptr dead_on_unwind writable sret(%struct.ossl_param_st) align 8 %12, ptr noundef %58, ptr noundef %59, i64 noundef %61)
  call void @llvm.memcpy.p0.p0.i64(ptr align 16 %57, ptr align 8 %12, i64 40, i1 false), !tbaa.struct !71
  call void @llvm.lifetime.end.p0(i64 40, ptr %12) #8
  %62 = getelementptr inbounds [2 x %struct.ossl_param_st], ptr %8, i64 0, i64 1
  call void @llvm.lifetime.start.p0(i64 40, ptr %13) #8
  call void @OSSL_PARAM_construct_end(ptr dead_on_unwind writable sret(%struct.ossl_param_st) align 8 %13)
  call void @llvm.memcpy.p0.p0.i64(ptr align 8 %62, ptr align 8 %13, i64 40, i1 false), !tbaa.struct !71
  call void @llvm.lifetime.end.p0(i64 40, ptr %13) #8
  %63 = load ptr, ptr %5, align 8, !tbaa !3
  %64 = getelementptr inbounds [2 x %struct.ossl_param_st], ptr %8, i64 0, i64 0
  %65 = call i32 @EVP_PKEY_set_params(ptr noundef %63, ptr noundef %64)
  store i32 %65, ptr %4, align 4
  store i32 1, ptr %11, align 4
  br label %66

66:                                               ; preds = %56, %55, %48, %32
  call void @llvm.lifetime.end.p0(i64 4, ptr %10) #8
  call void @llvm.lifetime.end.p0(i64 2048, ptr %9) #8
  call void @llvm.lifetime.end.p0(i64 80, ptr %8) #8
  %67 = load i32, ptr %4, align 4
  ret i32 %67
}