; Function Attrs: nounwind uwtable
define i32 @EVP_PKEY_set_bn_param(ptr noundef captures(address_is_null) %0, ptr noundef %1, ptr noundef %2) local_unnamed_addr #0 {
  %4 = alloca [2 x %struct.ossl_param_st], align 16
  %5 = alloca [2048 x i8], align 16
  %6 = alloca %struct.ossl_param_st, align 8
  call void @llvm.lifetime.start.p0(i64 80, ptr nonnull %4) #12
  call void @llvm.lifetime.start.p0(i64 2048, ptr nonnull %5) #12
  %7 = icmp eq ptr %1, null
  %8 = icmp eq ptr %2, null
  %or.cond = or i1 %7, %8
  %9 = icmp eq ptr %0, null
  %or.cond3 = or i1 %9, %or.cond
  br i1 %or.cond3, label %EVP_PKEY_set_params.exit, label %10

10:                                               ; preds = %3
  %11 = getelementptr inbounds nuw i8, ptr %0, i64 32
  %12 = load ptr, ptr %11, align 8, !tbaa !39
  %.not = icmp eq ptr %12, null
  br i1 %.not, label %13, label %16

13:                                               ; preds = %10
  %14 = getelementptr inbounds nuw i8, ptr %0, i64 104
  %15 = load ptr, ptr %14, align 8, !tbaa !33
  %.not19 = icmp eq ptr %15, null
  br i1 %.not19, label %EVP_PKEY_set_params.exit, label %16

16:                                               ; preds = %13, %10
  %17 = tail call i32 @BN_num_bits(ptr noundef nonnull %2) #12
  %18 = add nsw i32 %17, 7
  %19 = sdiv i32 %18, 8
  %20 = icmp slt i32 %17, 16385
  br i1 %20, label %21, label %EVP_PKEY_set_params.exit, !prof !107

21:                                               ; preds = %16
  %22 = call i32 @BN_bn2nativepad(ptr noundef nonnull %2, ptr noundef nonnull %5, i32 noundef %19) #12
  %23 = icmp slt i32 %22, 0
  br i1 %23, label %EVP_PKEY_set_params.exit, label %24

24:                                               ; preds = %21
  %25 = sext i32 %19 to i64
  call void @OSSL_PARAM_construct_BN(ptr dead_on_unwind nonnull writable sret(%struct.ossl_param_st) align 8 %4, ptr noundef nonnull %1, ptr noundef nonnull %5, i64 noundef %25) #12
  %26 = getelementptr inbounds nuw i8, ptr %4, i64 40
  call void @llvm.lifetime.start.p0(i64 40, ptr nonnull %6) #12
  call void @OSSL_PARAM_construct_end(ptr dead_on_unwind nonnull writable sret(%struct.ossl_param_st) align 8 %6) #12
  call void @llvm.memcpy.p0.p0.i64(ptr noundef nonnull align 8 dereferenceable(40) %26, ptr noundef nonnull align 8 dereferenceable(40) %6, i64 40, i1 false), !tbaa.struct !73
  call void @llvm.lifetime.end.p0(i64 40, ptr nonnull %6) #12
  %27 = getelementptr inbounds nuw i8, ptr %0, i64 96
  %28 = load ptr, ptr %27, align 8, !tbaa !30
  %.not7.i = icmp eq ptr %28, null
  br i1 %.not7.i, label %36, label %29

29:                                               ; preds = %24
  %30 = getelementptr inbounds nuw i8, ptr %0, i64 112
  %31 = load i64, ptr %30, align 8, !tbaa !95
  %32 = add i64 %31, 1
  store i64 %32, ptr %30, align 8, !tbaa !95
  %33 = getelementptr inbounds nuw i8, ptr %0, i64 104
  %34 = load ptr, ptr %33, align 8, !tbaa !33
  %35 = call i32 @evp_keymgmt_set_params(ptr noundef nonnull %28, ptr noundef %34, ptr noundef nonnull %4) #12
  br label %EVP_PKEY_set_params.exit

36:                                               ; preds = %24
  call void @ERR_new() #12
  call void @ERR_set_debug(ptr noundef nonnull @.str, i32 noundef 2438, ptr noundef nonnull @__func__.EVP_PKEY_set_params) #12
  call void (i32, i32, ptr, ...) @ERR_set_error(i32 noundef 6, i32 noundef 163, ptr noundef null) #12
  br label %EVP_PKEY_set_params.exit

EVP_PKEY_set_params.exit:                         ; preds = %36, %29, %21, %16, %3, %13
  %.0 = phi i32 [ 0, %13 ], [ 0, %3 ], [ 0, %16 ], [ 0, %21 ], [ %35, %29 ], [ 0, %36 ]
  call void @llvm.lifetime.end.p0(i64 2048, ptr nonnull %5) #12
  call void @llvm.lifetime.end.p0(i64 80, ptr nonnull %4) #12
  ret i32 %.0
}